; Function Attrs: nounwind uwtable
define hidden void @je_ecache_dalloc(ptr noundef %0, ptr noundef %1, ptr noundef %2, ptr noundef %3, ptr noundef %4) local_unnamed_addr #1 {
tsdn_witness_tsdp_get.exit:
  %5 = getelementptr i8, ptr %4, i64 8
  %.val = load ptr, ptr %5, align 8, !tbaa !40
  %6 = ptrtoint ptr %.val to i64
  %7 = and i64 %6, 4095
  %8 = sub nsw i64 0, %7
  %9 = getelementptr inbounds i8, ptr %.val, i64 %8
  store ptr %9, ptr %5, align 8, !tbaa !40
  %10 = load i64, ptr %4, align 8, !tbaa !43
  %11 = and i64 %10, -32769
  store i64 %11, ptr %4, align 8, !tbaa !43
  tail call void @je_extent_record(ptr noundef %0, ptr noundef %1, ptr noundef %2, ptr noundef %3, ptr noundef nonnull %4)
  ret void
}